target datalayout = "e-m:e-p270:32:32-p271:32:32-p272:64:64-i64:64-i128:128-f80:128-n8:16:32:64-S128"
target triple = "x86_64-pc-linux-gnu"

; Function Attrs: alwaysinline nounwind
define internal ptr @memcpy.inline(ptr noalias %0, ptr noalias %1, i64 %2) #8 {
  %4 = alloca ptr, align 8
  %5 = alloca ptr, align 8
  %6 = alloca i64, align 8
  store ptr %0, ptr %4, align 8
  store ptr %1, ptr %5, align 8
  store i64 %2, ptr %6, align 8
  %7 = load ptr, ptr %4, align 8
  %8 = load ptr, ptr %5, align 8
  %9 = load i64, ptr %6, align 8
  %10 = load ptr, ptr %4, align 8
  %11 = call i64 @llvm.objectsize.i64.p0(ptr %10, i1 false, i1 true, i1 true)
  %12 = call ptr @__memcpy_chk(ptr noundef %7, ptr noundef %8, i64 noundef %9, i64 noundef %11) #16
  ret ptr %12
}

; Function Attrs: null_pointer_is_valid sspstrong uwtable
define internal ptr @generate_iv(ptr noundef %0, i64 noundef %1, ptr noundef %2, i64 noundef %3, i32 noundef %4, i64 noundef %5) #0 {
  %7 = alloca ptr, align 8
  %8 = alloca ptr, align 8
  %9 = alloca i64, align 8
  %10 = alloca ptr, align 8
  %11 = alloca i64, align 8
  %12 = alloca i32, align 4
  %13 = alloca i64, align 8
  %14 = alloca ptr, align 8
  %15 = alloca ptr, align 8
  %16 = alloca i32, align 4
  store ptr %0, ptr %8, align 8
  store i64 %1, ptr %9, align 8
  store ptr %2, ptr %10, align 8
  store i64 %3, ptr %11, align 8
  store i32 %4, ptr %12, align 4
  store i64 %5, ptr %13, align 8
  call void @llvm.lifetime.start.p0(i64 8, ptr %14) #16
  call void @llvm.lifetime.start.p0(i64 8, ptr %15) #16
  %17 = load i32, ptr %12, align 4
  %18 = call i32 @gcry_md_open(ptr noundef %14, i32 noundef %17, i32 noundef 0)
  %19 = icmp ne i32 %18, 0
  br i1 %19, label %20, label %21

20:                                               ; preds = %6
  store ptr null, ptr %7, align 8
  store i32 1, ptr %16, align 4
  br label %39

21:                                               ; preds = %6
  %22 = load ptr, ptr %14, align 8
  %23 = load ptr, ptr %8, align 8
  %24 = load i64, ptr %9, align 8
  call void @gcry_md_write(ptr noundef %22, ptr noundef %23, i64 noundef %24)
  %25 = load ptr, ptr %14, align 8
  %26 = load ptr, ptr %10, align 8
  %27 = load i64, ptr %11, align 8
  call void @gcry_md_write(ptr noundef %25, ptr noundef %26, i64 noundef %27)
  %28 = call ptr @wmem_file_scope()
  %29 = load i64, ptr %13, align 8
  %30 = call noalias ptr @wmem_alloc(ptr noundef %28, i64 noundef %29) #17
  store ptr %30, ptr %15, align 8
  %31 = load ptr, ptr %15, align 8
  %32 = load ptr, ptr %14, align 8
  %33 = load i32, ptr %12, align 4
  %34 = call ptr @gcry_md_read(ptr noundef %32, i32 noundef %33)
  %35 = load i64, ptr %13, align 8
  %36 = call ptr @memcpy.inline(ptr noundef %31, ptr noundef %34, i64 noundef %35) #16
  %37 = load ptr, ptr %14, align 8
  call void @gcry_md_close(ptr noundef %37)
  %38 = load ptr, ptr %15, align 8
  store ptr %38, ptr %7, align 8
  store i32 1, ptr %16, align 4
  br label %39

39:                                               ; preds = %21, %20
  call void @llvm.lifetime.end.p0(i64 8, ptr %15) #16
  call void @llvm.lifetime.end.p0(i64 8, ptr %14) #16
  %40 = load ptr, ptr %7, align 8
  ret ptr %40
}