; Function Attrs: null_pointer_is_valid sspstrong uwtable
define internal fastcc noalias ptr @generate_iv(ptr noundef %0, i64 noundef %1, ptr noundef %2, i64 noundef range(i64 0, 4294967296) %3, i32 noundef %4, i64 noundef %5) unnamed_addr #0 {
  %7 = alloca ptr, align 8
  call void @llvm.lifetime.start.p0(i64 8, ptr nonnull %7) #20
  %8 = call i32 @gcry_md_open(ptr noundef nonnull %7, i32 noundef %4, i32 noundef 0)
  %.not = icmp eq i32 %8, 0
  br i1 %.not, label %9, label %18

9:                                                ; preds = %6
  %10 = load ptr, ptr %7, align 8
  call void @gcry_md_write(ptr noundef %10, ptr noundef %0, i64 noundef %1)
  %11 = load ptr, ptr %7, align 8
  call void @gcry_md_write(ptr noundef %11, ptr noundef %2, i64 noundef %3)
  %12 = call ptr @wmem_file_scope()
  %13 = call noalias ptr @wmem_alloc(ptr noundef %12, i64 noundef %5) #22
  %14 = load ptr, ptr %7, align 8
  %15 = call ptr @gcry_md_read(ptr noundef %14, i32 noundef %4)
  %16 = icmp ne i64 %5, -1
  call void @llvm.assume(i1 %16)
  call void @llvm.memcpy.p0.p0.i64(ptr noundef align 1 %13, ptr noundef align 1 %15, i64 noundef %5, i1 noundef false) #20
  %17 = load ptr, ptr %7, align 8
  call void @gcry_md_close(ptr noundef %17)
  br label %18

18:                                               ; preds = %6, %9
  %.0 = phi ptr [ %13, %9 ], [ null, %6 ]
  call void @llvm.lifetime.end.p0(i64 8, ptr nonnull %7) #20
  ret ptr %.0
}